; Function Attrs: mustprogress uwtable
define i32 @zmq_poller_size(ptr noundef %0) local_unnamed_addr #1 {
  %.not.i = icmp eq ptr %0, null
  br i1 %.not.i, label %_ZL12check_pollerPv.exit.thread, label %2

2:                                                ; preds = %1
  %3 = tail call noundef zeroext i1 @_ZNK3zmq15socket_poller_t9check_tagEv(ptr noundef nonnull align 8 dereferenceable(56) %0)
  br i1 %3, label %_ZL12check_pollerPv.exit, label %_ZL12check_pollerPv.exit.thread

_ZL12check_pollerPv.exit.thread:                  ; preds = %1, %2
  %4 = tail call ptr @__errno_location() #20
  store i32 14, ptr %4, align 4, !tbaa !3
  br label %14

_ZL12check_pollerPv.exit:                         ; preds = %2
  %5 = getelementptr inbounds nuw i8, ptr %0, i64 16
  %6 = getelementptr inbounds nuw i8, ptr %0, i64 24
  %7 = load ptr, ptr %6, align 8, !tbaa !72
  %8 = load ptr, ptr %5, align 8, !tbaa !75
  %9 = ptrtoint ptr %7 to i64
  %10 = ptrtoint ptr %8 to i64
  %11 = sub i64 %9, %10
  %12 = lshr exact i64 %11, 5
  %13 = trunc i64 %12 to i32
  br label %14

14:                                               ; preds = %_ZL12check_pollerPv.exit.thread, %_ZL12check_pollerPv.exit
  %.0 = phi i32 [ %13, %_ZL12check_pollerPv.exit ], [ -1, %_ZL12check_pollerPv.exit.thread ]
  ret i32 %.0
}